target datalayout = "e-m:e-p270:32:32-p271:32:32-p272:64:64-i64:64-i128:128-f80:128-n8:16:32:64-S128"
target triple = "x86_64-pc-linux-gnu"

%struct.CVodeMemRec = type { ptr, double, ptr, ptr, i32, i32, double, double, ptr, i32, i32, ptr, ptr, i32, i32, ptr, i32, i32, double, double, ptr, i32, i32, i32, i32, ptr, ptr, ptr, i32, i32, ptr, ptr, ptr, i32, double, i32, i32, double, ptr, ptr, ptr, i32, ptr, ptr, i32, i32, i32, double, ptr, ptr, ptr, [13 x ptr], ptr, ptr, ptr, ptr, ptr, ptr, ptr, ptr, ptr, [13 x ptr], ptr, ptr, ptr, ptr, [13 x ptr], ptr, ptr, ptr, ptr, ptr, i32, [13 x ptr], ptr, ptr, ptr, ptr, ptr, i32, i32, double, i32, i32, i32, i32, i32, double, double, double, double, double, double, double, double, [14 x double], [6 x double], [13 x double], double, double, double, double, double, double, double, double, i32, double, double, i32, double, double, ptr, i32, i64, i32, i32, i32, double, double, double, double, double, double, double, double, double, double, double, double, i64, i32, i64, i64, i64, i64, i64, i64, i64, i64, i64, ptr, i64, i64, ptr, i64, i64, ptr, i64, i64, i64, i64, i64, i64, i32, double, double, double, i64, i64, i64, i64, i64, i64, ptr, i32, ptr, i32, ptr, i32, ptr, i32, i32, i64, i32, ptr, i32, ptr, ptr, ptr, ptr, ptr, ptr, i32, i32, ptr, ptr, ptr, ptr, ptr, i64, double, i32, i32, i64, double, double, double, i32, i32, double, i32, i32, i32, i32, i32, i32, i32, i32, i32, i32, i32, i32, i32, i32, i32, i32, ptr, i64, i32, [6 x [4 x double]], i32, i64, ptr, i32, ptr, ptr, double, double, double, ptr, ptr, ptr, double, double, i32, i32, i64, ptr, i32, ptr, i32, i32, [13 x double], ptr, ptr, ptr, i32, ptr, i32 }
%struct.CVDiagMemRec = type { double, ptr, ptr, ptr, i64, i64 }

; Function Attrs: nounwind uwtable
define internal i32 @CVDiagSolve(ptr noundef %0, ptr noundef %1, ptr noundef %2, ptr noundef %3, ptr noundef %4) #0 {
  %6 = alloca i32, align 4
  %7 = alloca ptr, align 8
  %8 = alloca ptr, align 8
  %9 = alloca ptr, align 8
  %10 = alloca ptr, align 8
  %11 = alloca ptr, align 8
  %12 = alloca i32, align 4
  %13 = alloca double, align 8
  %14 = alloca ptr, align 8
  %15 = alloca i32, align 4
  store ptr %0, ptr %7, align 8, !tbaa !7
  store ptr %1, ptr %8, align 8, !tbaa !41
  store ptr %2, ptr %9, align 8, !tbaa !41
  store ptr %3, ptr %10, align 8, !tbaa !41
  store ptr %4, ptr %11, align 8, !tbaa !41
  call void @llvm.lifetime.start.p0(i64 4, ptr %12) #5
  call void @llvm.lifetime.start.p0(i64 8, ptr %13) #5
  call void @llvm.lifetime.start.p0(i64 8, ptr %14) #5
  %16 = load ptr, ptr %7, align 8, !tbaa !7
  %17 = getelementptr inbounds nuw %struct.CVodeMemRec, ptr %16, i32 0, i32 189
  %18 = load ptr, ptr %17, align 8, !tbaa !38
  store ptr %18, ptr %14, align 8, !tbaa !3
  %19 = load ptr, ptr %14, align 8, !tbaa !3
  %20 = getelementptr inbounds nuw %struct.CVDiagMemRec, ptr %19, i32 0, i32 0
  %21 = load double, ptr %20, align 8, !tbaa !52
  %22 = load ptr, ptr %7, align 8, !tbaa !7
  %23 = getelementptr inbounds nuw %struct.CVodeMemRec, ptr %22, i32 0, i32 99
  %24 = load double, ptr %23, align 8, !tbaa !51
  %25 = fcmp une double %21, %24
  br i1 %25, label %26, label %77

26:                                               ; preds = %5
  %27 = load ptr, ptr %7, align 8, !tbaa !7
  %28 = getelementptr inbounds nuw %struct.CVodeMemRec, ptr %27, i32 0, i32 99
  %29 = load double, ptr %28, align 8, !tbaa !51
  %30 = load ptr, ptr %14, align 8, !tbaa !3
  %31 = getelementptr inbounds nuw %struct.CVDiagMemRec, ptr %30, i32 0, i32 0
  %32 = load double, ptr %31, align 8, !tbaa !52
  %33 = fdiv double %29, %32
  store double %33, ptr %13, align 8, !tbaa !44
  %34 = load ptr, ptr %14, align 8, !tbaa !3
  %35 = getelementptr inbounds nuw %struct.CVDiagMemRec, ptr %34, i32 0, i32 1
  %36 = load ptr, ptr %35, align 8, !tbaa !35
  %37 = load ptr, ptr %14, align 8, !tbaa !3
  %38 = getelementptr inbounds nuw %struct.CVDiagMemRec, ptr %37, i32 0, i32 1
  %39 = load ptr, ptr %38, align 8, !tbaa !35
  call void @N_VInv(ptr noundef %36, ptr noundef %39)
  %40 = load ptr, ptr %14, align 8, !tbaa !3
  %41 = getelementptr inbounds nuw %struct.CVDiagMemRec, ptr %40, i32 0, i32 1
  %42 = load ptr, ptr %41, align 8, !tbaa !35
  %43 = load ptr, ptr %14, align 8, !tbaa !3
  %44 = getelementptr inbounds nuw %struct.CVDiagMemRec, ptr %43, i32 0, i32 1
  %45 = load ptr, ptr %44, align 8, !tbaa !35
  call void @N_VAddConst(ptr noundef %42, double noundef -1.000000e+00, ptr noundef %45)
  %46 = load double, ptr %13, align 8, !tbaa !44
  %47 = load ptr, ptr %14, align 8, !tbaa !3
  %48 = getelementptr inbounds nuw %struct.CVDiagMemRec, ptr %47, i32 0, i32 1
  %49 = load ptr, ptr %48, align 8, !tbaa !35
  %50 = load ptr, ptr %14, align 8, !tbaa !3
  %51 = getelementptr inbounds nuw %struct.CVDiagMemRec, ptr %50, i32 0, i32 1
  %52 = load ptr, ptr %51, align 8, !tbaa !35
  call void @N_VScale(double noundef %46, ptr noundef %49, ptr noundef %52)
  %53 = load ptr, ptr %14, align 8, !tbaa !3
  %54 = getelementptr inbounds nuw %struct.CVDiagMemRec, ptr %53, i32 0, i32 1
  %55 = load ptr, ptr %54, align 8, !tbaa !35
  %56 = load ptr, ptr %14, align 8, !tbaa !3
  %57 = getelementptr inbounds nuw %struct.CVDiagMemRec, ptr %56, i32 0, i32 1
  %58 = load ptr, ptr %57, align 8, !tbaa !35
  call void @N_VAddConst(ptr noundef %55, double noundef 1.000000e+00, ptr noundef %58)
  %59 = load ptr, ptr %14, align 8, !tbaa !3
  %60 = getelementptr inbounds nuw %struct.CVDiagMemRec, ptr %59, i32 0, i32 1
  %61 = load ptr, ptr %60, align 8, !tbaa !35
  %62 = load ptr, ptr %14, align 8, !tbaa !3
  %63 = getelementptr inbounds nuw %struct.CVDiagMemRec, ptr %62, i32 0, i32 1
  %64 = load ptr, ptr %63, align 8, !tbaa !35
  %65 = call i32 @N_VInvTest(ptr noundef %61, ptr noundef %64)
  store i32 %65, ptr %12, align 4, !tbaa !40
  %66 = load i32, ptr %12, align 4, !tbaa !40
  %67 = icmp ne i32 %66, 0
  br i1 %67, label %71, label %68

68:                                               ; preds = %26
  %69 = load ptr, ptr %14, align 8, !tbaa !3
  %70 = getelementptr inbounds nuw %struct.CVDiagMemRec, ptr %69, i32 0, i32 5
  store i64 -5, ptr %70, align 8, !tbaa !33
  store i32 1, ptr %6, align 4
  store i32 1, ptr %15, align 4
  br label %85

71:                                               ; preds = %26
  %72 = load ptr, ptr %7, align 8, !tbaa !7
  %73 = getelementptr inbounds nuw %struct.CVodeMemRec, ptr %72, i32 0, i32 99
  %74 = load double, ptr %73, align 8, !tbaa !51
  %75 = load ptr, ptr %14, align 8, !tbaa !3
  %76 = getelementptr inbounds nuw %struct.CVDiagMemRec, ptr %75, i32 0, i32 0
  store double %74, ptr %76, align 8, !tbaa !52
  br label %77

77:                                               ; preds = %71, %5
  %78 = load ptr, ptr %8, align 8, !tbaa !41
  %79 = load ptr, ptr %14, align 8, !tbaa !3
  %80 = getelementptr inbounds nuw %struct.CVDiagMemRec, ptr %79, i32 0, i32 1
  %81 = load ptr, ptr %80, align 8, !tbaa !35
  %82 = load ptr, ptr %8, align 8, !tbaa !41
  call void @N_VProd(ptr noundef %78, ptr noundef %81, ptr noundef %82)
  %83 = load ptr, ptr %14, align 8, !tbaa !3
  %84 = getelementptr inbounds nuw %struct.CVDiagMemRec, ptr %83, i32 0, i32 5
  store i64 0, ptr %84, align 8, !tbaa !33
  store i32 0, ptr %6, align 4
  store i32 1, ptr %15, align 4
  br label %85

85:                                               ; preds = %77, %68
  call void @llvm.lifetime.end.p0(i64 8, ptr %14) #5
  call void @llvm.lifetime.end.p0(i64 8, ptr %13) #5
  call void @llvm.lifetime.end.p0(i64 4, ptr %12) #5
  %86 = load i32, ptr %6, align 4
  ret i32 %86
}