; Function Attrs: nounwind uwtable
define internal range(i32 0, 2) i32 @CVDiagSolve(ptr noundef readonly captures(none) %0, ptr noundef %1, ptr readnone captures(none) %2, ptr readnone captures(none) %3, ptr readnone captures(none) %4) #0 {
  %6 = getelementptr inbounds nuw i8, ptr %0, i64 2016
  %7 = load ptr, ptr %6, align 8, !tbaa !35
  %8 = load double, ptr %7, align 8, !tbaa !47
  %9 = getelementptr inbounds nuw i8, ptr %0, i64 1320
  %10 = load double, ptr %9, align 8, !tbaa !46
  %11 = fcmp une double %8, %10
  br i1 %11, label %12, label %23

12:                                               ; preds = %5
  %13 = fdiv double %10, %8
  %14 = getelementptr inbounds nuw i8, ptr %7, i64 8
  %15 = load ptr, ptr %14, align 8, !tbaa !32
  tail call void @N_VInv(ptr noundef %15, ptr noundef %15) #8
  %16 = load ptr, ptr %14, align 8, !tbaa !32
  tail call void @N_VAddConst(ptr noundef %16, double noundef -1.000000e+00, ptr noundef %16) #8
  %17 = load ptr, ptr %14, align 8, !tbaa !32
  tail call void @N_VScale(double noundef %13, ptr noundef %17, ptr noundef %17) #8
  %18 = load ptr, ptr %14, align 8, !tbaa !32
  tail call void @N_VAddConst(ptr noundef %18, double noundef 1.000000e+00, ptr noundef %18) #8
  %19 = load ptr, ptr %14, align 8, !tbaa !32
  %20 = tail call i32 @N_VInvTest(ptr noundef %19, ptr noundef %19) #8
  %.not = icmp eq i32 %20, 0
  br i1 %.not, label %26, label %21

21:                                               ; preds = %12
  %22 = load double, ptr %9, align 8, !tbaa !46
  store double %22, ptr %7, align 8, !tbaa !47
  br label %23

23:                                               ; preds = %21, %5
  %24 = getelementptr inbounds nuw i8, ptr %7, i64 8
  %25 = load ptr, ptr %24, align 8, !tbaa !32
  tail call void @N_VProd(ptr noundef %1, ptr noundef %25, ptr noundef %1) #8
  br label %26

26:                                               ; preds = %12, %23
  %.sink = phi i64 [ 0, %23 ], [ -5, %12 ]
  %.0 = phi i32 [ 0, %23 ], [ 1, %12 ]
  %27 = getelementptr inbounds nuw i8, ptr %7, i64 40
  store i64 %.sink, ptr %27, align 8, !tbaa !30
  ret i32 %.0
}